target datalayout = "e-m:e-p270:32:32-p271:32:32-p272:64:64-i64:64-i128:128-f80:128-n8:16:32:64-S128"
target triple = "x86_64-pc-linux-gnu"

%struct.saucy = type { i32, ptr, ptr, ptr, ptr, %struct.coloring, %struct.coloring, ptr, ptr, ptr, ptr, ptr, i32, i32, ptr, i32, ptr, ptr, ptr, ptr, ptr, ptr, ptr, i32, i32, ptr, i32, ptr, i32, i32, ptr, ptr, ptr, ptr, ptr, ptr, ptr, ptr, ptr, ptr, i32, ptr, ptr, ptr, i32, ptr, i32, ptr, ptr, ptr, ptr, i32, ptr, ptr, i32, ptr, ptr, ptr, ptr, ptr, ptr, ptr, ptr, ptr, ptr, ptr, ptr, ptr, ptr, ptr, ptr, ptr, ptr, ptr, ptr, ptr, ptr, double, i32, i32, i32, ptr, ptr, ptr, ptr }
%struct.coloring = type { ptr, ptr, ptr, ptr }
%struct.Vec_Ptr_t_ = type { i32, i32, ptr }
%struct.saucy_graph = type { i32, i32, ptr, ptr }

; Function Attrs: nounwind uwtable
define internal i32 @refineByDepGraph(ptr noundef %0, ptr noundef %1) #0 {
  %3 = alloca ptr, align 8
  %4 = alloca ptr, align 8
  store ptr %0, ptr %3, align 8
  store ptr %1, ptr %4, align 8
  %5 = load ptr, ptr %3, align 8
  %6 = getelementptr inbounds %struct.saucy, ptr %5, i32 0, i32 63
  %7 = load ptr, ptr %6, align 8
  %8 = load ptr, ptr %3, align 8
  %9 = getelementptr inbounds %struct.saucy, ptr %8, i32 0, i32 1
  store ptr %7, ptr %9, align 8
  %10 = load ptr, ptr %3, align 8
  %11 = getelementptr inbounds %struct.saucy, ptr %10, i32 0, i32 64
  %12 = load ptr, ptr %11, align 8
  %13 = load ptr, ptr %3, align 8
  %14 = getelementptr inbounds %struct.saucy, ptr %13, i32 0, i32 2
  store ptr %12, ptr %14, align 8
  %15 = load ptr, ptr %3, align 8
  %16 = load ptr, ptr %4, align 8
  %17 = call i32 @refine(ptr noundef %15, ptr noundef %16)
  ret i32 %17
}

; Function Attrs: nounwind uwtable
define internal void @add_induce(ptr noundef %0, ptr noundef %1, i32 noundef %2) #0 {
  %4 = alloca ptr, align 8
  %5 = alloca ptr, align 8
  %6 = alloca i32, align 4
  store ptr %0, ptr %4, align 8
  store ptr %1, ptr %5, align 8
  store i32 %2, ptr %6, align 4
  %7 = load ptr, ptr %5, align 8
  %8 = getelementptr inbounds %struct.coloring, ptr %7, i32 0, i32 3
  %9 = load ptr, ptr %8, align 8
  %10 = load i32, ptr %6, align 4
  %11 = sext i32 %10 to i64
  %12 = getelementptr inbounds i32, ptr %9, i64 %11
  %13 = load i32, ptr %12, align 4
  %14 = icmp ne i32 %13, 0
  br i1 %14, label %26, label %15

15:                                               ; preds = %3
  %16 = load i32, ptr %6, align 4
  %17 = load ptr, ptr %4, align 8
  %18 = getelementptr inbounds %struct.saucy, ptr %17, i32 0, i32 11
  %19 = load ptr, ptr %18, align 8
  %20 = load ptr, ptr %4, align 8
  %21 = getelementptr inbounds %struct.saucy, ptr %20, i32 0, i32 13
  %22 = load i32, ptr %21, align 4
  %23 = add nsw i32 %22, 1
  store i32 %23, ptr %21, align 4
  %24 = sext i32 %22 to i64
  %25 = getelementptr inbounds i32, ptr %19, i64 %24
  store i32 %16, ptr %25, align 4
  br label %37

26:                                               ; preds = %3
  %27 = load i32, ptr %6, align 4
  %28 = load ptr, ptr %4, align 8
  %29 = getelementptr inbounds %struct.saucy, ptr %28, i32 0, i32 10
  %30 = load ptr, ptr %29, align 8
  %31 = load ptr, ptr %4, align 8
  %32 = getelementptr inbounds %struct.saucy, ptr %31, i32 0, i32 12
  %33 = load i32, ptr %32, align 8
  %34 = add nsw i32 %33, 1
  store i32 %34, ptr %32, align 8
  %35 = sext i32 %33 to i64
  %36 = getelementptr inbounds i32, ptr %30, i64 %35
  store i32 %27, ptr %36, align 4
  br label %37

37:                                               ; preds = %26, %15
  %38 = load ptr, ptr %4, align 8
  %39 = getelementptr inbounds %struct.saucy, ptr %38, i32 0, i32 9
  %40 = load ptr, ptr %39, align 8
  %41 = load i32, ptr %6, align 4
  %42 = sext i32 %41 to i64
  %43 = getelementptr inbounds i8, ptr %40, i64 %42
  store i8 1, ptr %43, align 1
  ret void
}

; Function Attrs: nounwind uwtable
define internal ptr @Vec_PtrEntry(ptr noundef %0, i32 noundef %1) #0 {
  %3 = alloca ptr, align 8
  %4 = alloca i32, align 4
  store ptr %0, ptr %3, align 8
  store i32 %1, ptr %4, align 4
  %5 = load ptr, ptr %3, align 8
  %6 = getelementptr inbounds %struct.Vec_Ptr_t_, ptr %5, i32 0, i32 2
  %7 = load ptr, ptr %6, align 8
  %8 = load i32, ptr %4, align 4
  %9 = sext i32 %8 to i64
  %10 = getelementptr inbounds ptr, ptr %7, i64 %9
  %11 = load ptr, ptr %10, align 8
  ret ptr %11
}

; Function Attrs: nounwind uwtable
define internal i32 @refineBySim2_other(ptr noundef %0, ptr noundef %1) #0 {
  %3 = alloca i32, align 4
  %4 = alloca ptr, align 8
  %5 = alloca ptr, align 8
  %6 = alloca ptr, align 8
  %7 = alloca ptr, align 8
  %8 = alloca i32, align 4
  %9 = alloca i32, align 4
  %10 = alloca i32, align 4
  %11 = alloca i32, align 4
  store ptr %0, ptr %4, align 8
  store ptr %1, ptr %5, align 8
  %12 = load ptr, ptr %4, align 8
  %13 = getelementptr inbounds %struct.saucy, ptr %12, i32 0, i32 73
  %14 = load ptr, ptr %13, align 8
  %15 = load ptr, ptr %4, align 8
  %16 = getelementptr inbounds %struct.saucy, ptr %15, i32 0, i32 23
  %17 = load i32, ptr %16, align 8
  %18 = sub nsw i32 %17, 1
  %19 = sext i32 %18 to i64
  %20 = getelementptr inbounds i32, ptr %14, i64 %19
  %21 = load i32, ptr %20, align 4
  store i32 %21, ptr %8, align 4
  br label %22

22:                                               ; preds = %173, %2
  %23 = load i32, ptr %8, align 4
  %24 = load ptr, ptr %4, align 8
  %25 = getelementptr inbounds %struct.saucy, ptr %24, i32 0, i32 73
  %26 = load ptr, ptr %25, align 8
  %27 = load ptr, ptr %4, align 8
  %28 = getelementptr inbounds %struct.saucy, ptr %27, i32 0, i32 23
  %29 = load i32, ptr %28, align 8
  %30 = sext i32 %29 to i64
  %31 = getelementptr inbounds i32, ptr %26, i64 %30
  %32 = load i32, ptr %31, align 4
  %33 = icmp slt i32 %23, %32
  br i1 %33, label %34, label %176

34:                                               ; preds = %22
  %35 = load ptr, ptr %4, align 8
  %36 = getelementptr inbounds %struct.saucy, ptr %35, i32 0, i32 72
  %37 = load ptr, ptr %36, align 8
  %38 = load i32, ptr %8, align 4
  %39 = call ptr @Vec_PtrEntry(ptr noundef %37, i32 noundef %38)
  store ptr %39, ptr %7, align 8
  %40 = load ptr, ptr %4, align 8
  %41 = getelementptr inbounds %struct.saucy, ptr %40, i32 0, i32 61
  %42 = load ptr, ptr %41, align 8
  %43 = load ptr, ptr %5, align 8
  %44 = load ptr, ptr %7, align 8
  %45 = load ptr, ptr %4, align 8
  %46 = getelementptr inbounds %struct.saucy, ptr %45, i32 0, i32 65
  %47 = load ptr, ptr %46, align 8
  %48 = load ptr, ptr %4, align 8
  %49 = getelementptr inbounds %struct.saucy, ptr %48, i32 0, i32 66
  %50 = load ptr, ptr %49, align 8
  %51 = load ptr, ptr %4, align 8
  %52 = getelementptr inbounds %struct.saucy, ptr %51, i32 0, i32 69
  %53 = load ptr, ptr %52, align 8
  %54 = load ptr, ptr %4, align 8
  %55 = getelementptr inbounds %struct.saucy, ptr %54, i32 0, i32 67
  %56 = load ptr, ptr %55, align 8
  %57 = load ptr, ptr %4, align 8
  %58 = getelementptr inbounds %struct.saucy, ptr %57, i32 0, i32 68
  %59 = load ptr, ptr %58, align 8
  %60 = call ptr @buildSim2Graph(ptr noundef %42, ptr noundef %43, ptr noundef %44, ptr noundef %47, ptr noundef %50, ptr noundef %53, ptr noundef %56, ptr noundef %59)
  store ptr %60, ptr %6, align 8
  %61 = load ptr, ptr %6, align 8
  %62 = icmp eq ptr %61, null
  br i1 %62, label %63, label %64

63:                                               ; preds = %34
  store i32 0, ptr %3, align 4
  br label %177

64:                                               ; preds = %34
  %65 = load ptr, ptr %6, align 8
  %66 = getelementptr inbounds %struct.saucy_graph, ptr %65, i32 0, i32 2
  %67 = load ptr, ptr %66, align 8
  %68 = load ptr, ptr %4, align 8
  %69 = getelementptr inbounds %struct.saucy, ptr %68, i32 0, i32 1
  store ptr %67, ptr %69, align 8
  %70 = load ptr, ptr %6, align 8
  %71 = getelementptr inbounds %struct.saucy_graph, ptr %70, i32 0, i32 3
  %72 = load ptr, ptr %71, align 8
  %73 = load ptr, ptr %4, align 8
  %74 = getelementptr inbounds %struct.saucy, ptr %73, i32 0, i32 2
  store ptr %72, ptr %74, align 8
  %75 = load ptr, ptr %4, align 8
  %76 = getelementptr inbounds %struct.saucy, ptr %75, i32 0, i32 40
  %77 = load i32, ptr %76, align 8
  store i32 %77, ptr %11, align 4
  store i32 0, ptr %9, align 4
  br label %78

78:                                               ; preds = %88, %64
  %79 = load i32, ptr %9, align 4
  %80 = load ptr, ptr %4, align 8
  %81 = getelementptr inbounds %struct.saucy, ptr %80, i32 0, i32 0
  %82 = load i32, ptr %81, align 8
  %83 = icmp slt i32 %79, %82
  br i1 %83, label %84, label %99

84:                                               ; preds = %78
  %85 = load ptr, ptr %4, align 8
  %86 = load ptr, ptr %5, align 8
  %87 = load i32, ptr %9, align 4
  call void @add_induce(ptr noundef %85, ptr noundef %86, i32 noundef %87)
  br label %88

88:                                               ; preds = %84
  %89 = load ptr, ptr %5, align 8
  %90 = getelementptr inbounds %struct.coloring, ptr %89, i32 0, i32 3
  %91 = load ptr, ptr %90, align 8
  %92 = load i32, ptr %9, align 4
  %93 = sext i32 %92 to i64
  %94 = getelementptr inbounds i32, ptr %91, i64 %93
  %95 = load i32, ptr %94, align 4
  %96 = add nsw i32 %95, 1
  %97 = load i32, ptr %9, align 4
  %98 = add nsw i32 %97, %96
  store i32 %98, ptr %9, align 4
  br label %78, !llvm.loop !45

99:                                               ; preds = %78
  %100 = load ptr, ptr %4, align 8
  %101 = load ptr, ptr %5, align 8
  %102 = call i32 @refine(ptr noundef %100, ptr noundef %101)
  store i32 %102, ptr %10, align 4
  %103 = load ptr, ptr %4, align 8
  %104 = getelementptr inbounds %struct.saucy, ptr %103, i32 0, i32 40
  %105 = load i32, ptr %104, align 8
  %106 = load i32, ptr %11, align 4
  %107 = icmp eq i32 %105, %106
  br i1 %107, label %108, label %109

108:                                              ; preds = %99
  store i32 0, ptr %10, align 4
  br label %109

109:                                              ; preds = %108, %99
  %110 = load i32, ptr %10, align 4
  %111 = icmp ne i32 %110, 0
  br i1 %111, label %112, label %138

112:                                              ; preds = %109
  store i32 0, ptr %9, align 4
  br label %113

113:                                              ; preds = %123, %112
  %114 = load i32, ptr %9, align 4
  %115 = load ptr, ptr %4, align 8
  %116 = getelementptr inbounds %struct.saucy, ptr %115, i32 0, i32 0
  %117 = load i32, ptr %116, align 8
  %118 = icmp slt i32 %114, %117
  br i1 %118, label %119, label %134

119:                                              ; preds = %113
  %120 = load ptr, ptr %4, align 8
  %121 = load ptr, ptr %5, align 8
  %122 = load i32, ptr %9, align 4
  call void @add_induce(ptr noundef %120, ptr noundef %121, i32 noundef %122)
  br label %123

123:                                              ; preds = %119
  %124 = load ptr, ptr %5, align 8
  %125 = getelementptr inbounds %struct.coloring, ptr %124, i32 0, i32 3
  %126 = load ptr, ptr %125, align 8
  %127 = load i32, ptr %9, align 4
  %128 = sext i32 %127 to i64
  %129 = getelementptr inbounds i32, ptr %126, i64 %128
  %130 = load i32, ptr %129, align 4
  %131 = add nsw i32 %130, 1
  %132 = load i32, ptr %9, align 4
  %133 = add nsw i32 %132, %131
  store i32 %133, ptr %9, align 4
  br label %113, !llvm.loop !46

134:                                              ; preds = %113
  %135 = load ptr, ptr %4, align 8
  %136 = load ptr, ptr %5, align 8
  %137 = call i32 @refineByDepGraph(ptr noundef %135, ptr noundef %136)
  store i32 %137, ptr %10, align 4
  br label %138

138:                                              ; preds = %134, %109
  %139 = load ptr, ptr %6, align 8
  %140 = getelementptr inbounds %struct.saucy_graph, ptr %139, i32 0, i32 2
  %141 = load ptr, ptr %140, align 8
  %142 = icmp ne ptr %141, null
  br i1 %142, label %143, label %149

143:                                              ; preds = %138
  %144 = load ptr, ptr %6, align 8
  %145 = getelementptr inbounds %struct.saucy_graph, ptr %144, i32 0, i32 2
  %146 = load ptr, ptr %145, align 8
  call void @free(ptr noundef %146) #10
  %147 = load ptr, ptr %6, align 8
  %148 = getelementptr inbounds %struct.saucy_graph, ptr %147, i32 0, i32 2
  store ptr null, ptr %148, align 8
  br label %150

149:                                              ; preds = %138
  br label %150

150:                                              ; preds = %149, %143
  %151 = load ptr, ptr %6, align 8
  %152 = getelementptr inbounds %struct.saucy_graph, ptr %151, i32 0, i32 3
  %153 = load ptr, ptr %152, align 8
  %154 = icmp ne ptr %153, null
  br i1 %154, label %155, label %161

155:                                              ; preds = %150
  %156 = load ptr, ptr %6, align 8
  %157 = getelementptr inbounds %struct.saucy_graph, ptr %156, i32 0, i32 3
  %158 = load ptr, ptr %157, align 8
  call void @free(ptr noundef %158) #10
  %159 = load ptr, ptr %6, align 8
  %160 = getelementptr inbounds %struct.saucy_graph, ptr %159, i32 0, i32 3
  store ptr null, ptr %160, align 8
  br label %162

161:                                              ; preds = %150
  br label %162

162:                                              ; preds = %161, %155
  %163 = load ptr, ptr %6, align 8
  %164 = icmp ne ptr %163, null
  br i1 %164, label %165, label %167

165:                                              ; preds = %162
  %166 = load ptr, ptr %6, align 8
  call void @free(ptr noundef %166) #10
  store ptr null, ptr %6, align 8
  br label %168

167:                                              ; preds = %162
  br label %168

168:                                              ; preds = %167, %165
  %169 = load i32, ptr %10, align 4
  %170 = icmp ne i32 %169, 0
  br i1 %170, label %172, label %171

171:                                              ; preds = %168
  store i32 0, ptr %3, align 4
  br label %177

172:                                              ; preds = %168
  br label %173

173:                                              ; preds = %172
  %174 = load i32, ptr %8, align 4
  %175 = add nsw i32 %174, 1
  store i32 %175, ptr %8, align 4
  br label %22, !llvm.loop !47

176:                                              ; preds = %22
  store i32 1, ptr %3, align 4
  br label %177

177:                                              ; preds = %176, %171, %63
  %178 = load i32, ptr %3, align 4
  ret i32 %178
}