; Function Attrs: nounwind uwtable
define internal range(i32 0, 2) i32 @refineBySim2_other(ptr noundef %0, ptr noundef %1) #0 {
  %3 = getelementptr inbounds nuw i8, ptr %0, i64 608
  %4 = load ptr, ptr %3, align 8
  %5 = getelementptr inbounds nuw i8, ptr %0, i64 224
  %6 = load i32, ptr %5, align 8
  %7 = sext i32 %6 to i64
  %8 = getelementptr i32, ptr %4, i64 %7
  %9 = getelementptr i8, ptr %8, i64 -4
  %10 = load i32, ptr %9, align 4
  %11 = getelementptr inbounds nuw i8, ptr %0, i64 600
  %12 = load i32, ptr %8, align 4
  %13 = icmp slt i32 %10, %12
  br i1 %13, label %.lr.ph76, label %._crit_edge77

.lr.ph76:                                         ; preds = %2
  %14 = getelementptr inbounds nuw i8, ptr %0, i64 512
  %15 = getelementptr inbounds nuw i8, ptr %0, i64 544
  %16 = getelementptr inbounds nuw i8, ptr %0, i64 576
  %17 = getelementptr inbounds nuw i8, ptr %0, i64 560
  %18 = getelementptr inbounds nuw i8, ptr %0, i64 568
  %19 = getelementptr inbounds nuw i8, ptr %0, i64 8
  %20 = getelementptr inbounds nuw i8, ptr %0, i64 16
  %21 = getelementptr inbounds nuw i8, ptr %0, i64 344
  %22 = getelementptr i8, ptr %1, i64 24
  %23 = getelementptr inbounds nuw i8, ptr %0, i64 128
  %24 = getelementptr inbounds nuw i8, ptr %0, i64 144
  %25 = getelementptr inbounds nuw i8, ptr %0, i64 136
  %26 = getelementptr inbounds nuw i8, ptr %0, i64 148
  %27 = getelementptr inbounds nuw i8, ptr %0, i64 120
  %28 = getelementptr inbounds nuw i8, ptr %0, i64 528
  %29 = getelementptr inbounds nuw i8, ptr %0, i64 536
  %30 = sext i32 %10 to i64
  br label %39

31:                                               ; preds = %116
  %indvars.iv.next = add nsw i64 %indvars.iv, 1
  %32 = load ptr, ptr %3, align 8
  %33 = load i32, ptr %5, align 8
  %34 = sext i32 %33 to i64
  %35 = getelementptr inbounds i32, ptr %32, i64 %34
  %36 = load i32, ptr %35, align 4
  %37 = sext i32 %36 to i64
  %38 = icmp slt i64 %indvars.iv.next, %37
  br i1 %38, label %39, label %._crit_edge77, !llvm.loop !75

39:                                               ; preds = %.lr.ph76, %31
  %indvars.iv = phi i64 [ %30, %.lr.ph76 ], [ %indvars.iv.next, %31 ]
  %40 = load ptr, ptr %11, align 8
  %41 = getelementptr i8, ptr %40, i64 8
  %.val = load ptr, ptr %41, align 8
  %42 = getelementptr inbounds ptr, ptr %.val, i64 %indvars.iv
  %43 = load ptr, ptr %42, align 8
  %44 = load ptr, ptr %14, align 8
  %45 = load ptr, ptr %15, align 8
  %46 = load ptr, ptr %16, align 8
  %47 = load ptr, ptr %17, align 8
  %48 = load ptr, ptr %18, align 8
  %49 = tail call fastcc ptr @buildSim2Graph(ptr noundef %44, ptr noundef %1, ptr noundef %43, ptr noundef %45, ptr noundef %46, ptr noundef %47, ptr noundef %48)
  %50 = icmp eq ptr %49, null
  br i1 %50, label %._crit_edge77, label %51

51:                                               ; preds = %39
  %52 = getelementptr inbounds nuw i8, ptr %49, i64 8
  %53 = load ptr, ptr %52, align 8
  store ptr %53, ptr %19, align 8
  %54 = getelementptr inbounds nuw i8, ptr %49, i64 16
  %55 = load ptr, ptr %54, align 8
  store ptr %55, ptr %20, align 8
  %56 = load i32, ptr %21, align 8
  %57 = load i32, ptr %0, align 8
  %58 = icmp sgt i32 %57, 0
  br i1 %58, label %.lr.ph.preheader, label %._crit_edge

.lr.ph.preheader:                                 ; preds = %51
  %.val65.pre = load ptr, ptr %22, align 8
  br label %.lr.ph

.lr.ph:                                           ; preds = %.lr.ph.preheader, %add_induce.exit
  %.val65 = phi ptr [ %74, %add_induce.exit ], [ %.val65.pre, %.lr.ph.preheader ]
  %.05570 = phi i32 [ %78, %add_induce.exit ], [ 0, %.lr.ph.preheader ]
  %59 = sext i32 %.05570 to i64
  %60 = getelementptr inbounds i32, ptr %.val65, i64 %59
  %61 = load i32, ptr %60, align 4
  %.not.i = icmp eq i32 %61, 0
  br i1 %.not.i, label %62, label %66

62:                                               ; preds = %.lr.ph
  %63 = load ptr, ptr %25, align 8
  %64 = load i32, ptr %26, align 4
  %65 = add nsw i32 %64, 1
  store i32 %65, ptr %26, align 4
  br label %add_induce.exit

66:                                               ; preds = %.lr.ph
  %67 = load ptr, ptr %23, align 8
  %68 = load i32, ptr %24, align 8
  %69 = add nsw i32 %68, 1
  store i32 %69, ptr %24, align 8
  br label %add_induce.exit

add_induce.exit:                                  ; preds = %62, %66
  %.sink.i = phi i32 [ %68, %66 ], [ %64, %62 ]
  %.sink1.i = phi ptr [ %67, %66 ], [ %63, %62 ]
  %70 = sext i32 %.sink.i to i64
  %71 = getelementptr inbounds i32, ptr %.sink1.i, i64 %70
  store i32 %.05570, ptr %71, align 4
  %72 = load ptr, ptr %27, align 8
  %73 = getelementptr inbounds i8, ptr %72, i64 %59
  store i8 1, ptr %73, align 1
  %74 = load ptr, ptr %22, align 8
  %75 = getelementptr inbounds i32, ptr %74, i64 %59
  %76 = load i32, ptr %75, align 4
  %77 = add nsw i32 %.05570, 1
  %78 = add i32 %77, %76
  %79 = load i32, ptr %0, align 8
  %80 = icmp slt i32 %78, %79
  br i1 %80, label %.lr.ph, label %._crit_edge, !llvm.loop !76

._crit_edge:                                      ; preds = %add_induce.exit, %51
  %81 = tail call fastcc i32 @refine(ptr noundef nonnull %0, ptr noundef %1)
  %82 = load i32, ptr %21, align 8
  %83 = icmp eq i32 %82, %56
  %.not60 = icmp eq i32 %81, 0
  %.not = select i1 %83, i1 true, i1 %.not60
  br i1 %.not, label %112, label %.preheader

.preheader:                                       ; preds = %._crit_edge
  %84 = load i32, ptr %0, align 8
  %85 = icmp sgt i32 %84, 0
  br i1 %85, label %.lr.ph72.preheader, label %._crit_edge73

.lr.ph72.preheader:                               ; preds = %.preheader
  %.val64.pre = load ptr, ptr %22, align 8
  br label %.lr.ph72

.lr.ph72:                                         ; preds = %.lr.ph72.preheader, %add_induce.exit69
  %.val64 = phi ptr [ %101, %add_induce.exit69 ], [ %.val64.pre, %.lr.ph72.preheader ]
  %.171 = phi i32 [ %105, %add_induce.exit69 ], [ 0, %.lr.ph72.preheader ]
  %86 = sext i32 %.171 to i64
  %87 = getelementptr inbounds i32, ptr %.val64, i64 %86
  %88 = load i32, ptr %87, align 4
  %.not.i66 = icmp eq i32 %88, 0
  br i1 %.not.i66, label %89, label %93

89:                                               ; preds = %.lr.ph72
  %90 = load ptr, ptr %25, align 8
  %91 = load i32, ptr %26, align 4
  %92 = add nsw i32 %91, 1
  store i32 %92, ptr %26, align 4
  br label %add_induce.exit69

93:                                               ; preds = %.lr.ph72
  %94 = load ptr, ptr %23, align 8
  %95 = load i32, ptr %24, align 8
  %96 = add nsw i32 %95, 1
  store i32 %96, ptr %24, align 8
  br label %add_induce.exit69

add_induce.exit69:                                ; preds = %89, %93
  %.sink.i67 = phi i32 [ %95, %93 ], [ %91, %89 ]
  %.sink1.i68 = phi ptr [ %94, %93 ], [ %90, %89 ]
  %97 = sext i32 %.sink.i67 to i64
  %98 = getelementptr inbounds i32, ptr %.sink1.i68, i64 %97
  store i32 %.171, ptr %98, align 4
  %99 = load ptr, ptr %27, align 8
  %100 = getelementptr inbounds i8, ptr %99, i64 %86
  store i8 1, ptr %100, align 1
  %101 = load ptr, ptr %22, align 8
  %102 = getelementptr inbounds i32, ptr %101, i64 %86
  %103 = load i32, ptr %102, align 4
  %104 = add nsw i32 %.171, 1
  %105 = add i32 %104, %103
  %106 = load i32, ptr %0, align 8
  %107 = icmp slt i32 %105, %106
  br i1 %107, label %.lr.ph72, label %._crit_edge73, !llvm.loop !77

._crit_edge73:                                    ; preds = %add_induce.exit69, %.preheader
  %108 = load ptr, ptr %28, align 8
  store ptr %108, ptr %19, align 8
  %109 = load ptr, ptr %29, align 8
  store ptr %109, ptr %20, align 8
  %110 = tail call fastcc range(i32 0, 2) i32 @refine(ptr noundef nonnull %0, ptr noundef %1)
  %111 = icmp eq i32 %110, 0
  br label %112

112:                                              ; preds = %._crit_edge73, %._crit_edge
  %.054 = phi i1 [ %111, %._crit_edge73 ], [ true, %._crit_edge ]
  %.not61 = icmp eq ptr %53, null
  br i1 %.not61, label %114, label %113

113:                                              ; preds = %112
  tail call void @free(ptr noundef nonnull %53) #24
  br label %114

114:                                              ; preds = %112, %113
  %.not62 = icmp eq ptr %55, null
  br i1 %.not62, label %116, label %115

115:                                              ; preds = %114
  tail call void @free(ptr noundef nonnull %55) #24
  br label %116

116:                                              ; preds = %115, %114
  tail call void @free(ptr noundef nonnull %49) #24
  br i1 %.054, label %._crit_edge77, label %31

._crit_edge77:                                    ; preds = %39, %116, %31, %2
  %.0 = phi i32 [ 1, %2 ], [ 1, %31 ], [ 0, %116 ], [ 0, %39 ]
  ret i32 %.0
}